target datalayout = "e-m:e-p270:32:32-p271:32:32-p272:64:64-i64:64-i128:128-f80:128-n8:16:32:64-S128"
target triple = "x86_64-pc-linux-gnu"

%struct.Rwr_Man4_t_ = type { i32, ptr, ptr, i32, i32 }

@s_pManRwrExp4 = internal global ptr null, align 8

; Function Attrs: nounwind uwtable
define void @Rwt_Man4ExploreStart() #0 {
  %1 = alloca ptr, align 8
  call void @llvm.lifetime.start.p0(i64 8, ptr %1) #10
  %2 = call noalias ptr @malloc(i64 noundef 32) #11
  store ptr %2, ptr %1, align 8, !tbaa !3
  %3 = load ptr, ptr %1, align 8, !tbaa !3
  call void @llvm.memset.p0.i64(ptr align 8 %3, i8 0, i64 32, i1 false)
  %4 = load ptr, ptr %1, align 8, !tbaa !3
  %5 = getelementptr inbounds nuw %struct.Rwr_Man4_t_, ptr %4, i32 0, i32 0
  store i32 65536, ptr %5, align 8, !tbaa !8
  %6 = load ptr, ptr %1, align 8, !tbaa !3
  %7 = getelementptr inbounds nuw %struct.Rwr_Man4_t_, ptr %6, i32 0, i32 1
  call void @Extra_Truth4VarNPN(ptr noundef %7, ptr noundef null, ptr noundef null, ptr noundef null)
  %8 = load ptr, ptr %1, align 8, !tbaa !3
  %9 = getelementptr inbounds nuw %struct.Rwr_Man4_t_, ptr %8, i32 0, i32 0
  %10 = load i32, ptr %9, align 8, !tbaa !8
  %11 = sext i32 %10 to i64
  %12 = mul i64 4, %11
  %13 = call noalias ptr @malloc(i64 noundef %12) #11
  %14 = load ptr, ptr %1, align 8, !tbaa !3
  %15 = getelementptr inbounds nuw %struct.Rwr_Man4_t_, ptr %14, i32 0, i32 2
  store ptr %13, ptr %15, align 8, !tbaa !13
  %16 = load ptr, ptr %1, align 8, !tbaa !3
  %17 = getelementptr inbounds nuw %struct.Rwr_Man4_t_, ptr %16, i32 0, i32 2
  %18 = load ptr, ptr %17, align 8, !tbaa !13
  %19 = load ptr, ptr %1, align 8, !tbaa !3
  %20 = getelementptr inbounds nuw %struct.Rwr_Man4_t_, ptr %19, i32 0, i32 0
  %21 = load i32, ptr %20, align 8, !tbaa !8
  %22 = sext i32 %21 to i64
  %23 = mul i64 4, %22
  call void @llvm.memset.p0.i64(ptr align 4 %18, i8 0, i64 %23, i1 false)
  %24 = load ptr, ptr %1, align 8, !tbaa !3
  store ptr %24, ptr @s_pManRwrExp4, align 8, !tbaa !3
  call void @llvm.lifetime.end.p0(i64 8, ptr %1) #10
  ret void
}