; Function Attrs: nounwind uwtable
define void @Rwt_Man4ExploreStart() local_unnamed_addr #0 {
  %calloc = tail call dereferenceable_or_null(32) ptr @calloc(i64 1, i64 32)
  store i32 65536, ptr %calloc, align 8, !tbaa !3
  %1 = getelementptr inbounds nuw i8, ptr %calloc, i64 8
  tail call void @Extra_Truth4VarNPN(ptr noundef nonnull %1, ptr noundef null, ptr noundef null, ptr noundef null) #18
  %2 = load i32, ptr %calloc, align 8, !tbaa !3
  %3 = sext i32 %2 to i64
  %4 = shl nsw i64 %3, 2
  %calloc8 = tail call ptr @calloc(i64 1, i64 %4)
  %5 = getelementptr inbounds nuw i8, ptr %calloc, i64 16
  store ptr %calloc8, ptr %5, align 8, !tbaa !11
  store ptr %calloc, ptr @s_pManRwrExp4, align 8, !tbaa !12
  ret void
}